target datalayout = "e-m:e-p270:32:32-p271:32:32-p272:64:64-i64:64-i128:128-f80:128-n8:16:32:64-S128"
target triple = "x86_64-pc-linux-gnu"

%struct.addrinfo = type { i32, i32, i32, i32, i32, ptr, ptr, ptr }

@tested_for_getaddrinfo_hacks = internal global i32 0, align 4
@need_numeric_port_hack_ = internal global i32 0, align 4
@.str.35 = private unnamed_addr constant [8 x i8] c"1.2.3.4\00", align 1
@.str.36 = private unnamed_addr constant [3 x i8] c"80\00", align 1
@need_socktype_protocol_hack_ = internal global i32 0, align 4

; Function Attrs: nounwind uwtable
define internal ptr @ai_find_protocol(ptr noundef %0) #0 {
  %2 = alloca ptr, align 8
  %3 = alloca ptr, align 8
  store ptr %0, ptr %3, align 8
  br label %4

4:                                                ; preds = %14, %1
  %5 = load ptr, ptr %3, align 8
  %6 = icmp ne ptr %5, null
  br i1 %6, label %7, label %18

7:                                                ; preds = %4
  %8 = load ptr, ptr %3, align 8
  %9 = getelementptr inbounds nuw %struct.addrinfo, ptr %8, i32 0, i32 3
  %10 = load i32, ptr %9, align 4
  %11 = icmp ne i32 %10, 0
  br i1 %11, label %12, label %14

12:                                               ; preds = %7
  %13 = load ptr, ptr %3, align 8
  store ptr %13, ptr %2, align 8
  br label %19

14:                                               ; preds = %7
  %15 = load ptr, ptr %3, align 8
  %16 = getelementptr inbounds nuw %struct.addrinfo, ptr %15, i32 0, i32 7
  %17 = load ptr, ptr %16, align 8
  store ptr %17, ptr %3, align 8
  br label %4, !llvm.loop !25

18:                                               ; preds = %4
  store ptr null, ptr %2, align 8
  br label %19

19:                                               ; preds = %18, %12
  %20 = load ptr, ptr %2, align 8
  ret ptr %20
}

; Function Attrs: nounwind uwtable
define internal void @test_for_getaddrinfo_hacks() #0 {
  %1 = alloca i32, align 4
  %2 = alloca i32, align 4
  %3 = alloca ptr, align 8
  %4 = alloca ptr, align 8
  %5 = alloca ptr, align 8
  %6 = alloca %struct.addrinfo, align 8
  call void @llvm.lifetime.start.p0(i64 4, ptr %1) #11
  call void @llvm.lifetime.start.p0(i64 4, ptr %2) #11
  call void @llvm.lifetime.start.p0(i64 8, ptr %3) #11
  store ptr null, ptr %3, align 8
  call void @llvm.lifetime.start.p0(i64 8, ptr %4) #11
  store ptr null, ptr %4, align 8
  call void @llvm.lifetime.start.p0(i64 8, ptr %5) #11
  store ptr null, ptr %5, align 8
  call void @llvm.lifetime.start.p0(i64 48, ptr %6) #11
  call void @llvm.memset.p0.i64(ptr align 8 %6, i8 0, i64 48, i1 false)
  %7 = getelementptr inbounds nuw %struct.addrinfo, ptr %6, i32 0, i32 1
  store i32 0, ptr %7, align 4
  %8 = getelementptr inbounds nuw %struct.addrinfo, ptr %6, i32 0, i32 0
  store i32 1028, ptr %8, align 8
  %9 = call i32 @getaddrinfo(ptr noundef @.str.35, ptr noundef @.str.36, ptr noundef %6, ptr noundef %3)
  store i32 %9, ptr %1, align 4
  %10 = call i32 @getaddrinfo(ptr noundef @.str.35, ptr noundef null, ptr noundef %6, ptr noundef %5)
  %11 = getelementptr inbounds nuw %struct.addrinfo, ptr %6, i32 0, i32 2
  store i32 1, ptr %11, align 8
  %12 = call i32 @getaddrinfo(ptr noundef @.str.35, ptr noundef @.str.36, ptr noundef %6, ptr noundef %4)
  store i32 %12, ptr %2, align 4
  %13 = load i32, ptr %2, align 4
  %14 = icmp eq i32 %13, 0
  br i1 %14, label %15, label %19

15:                                               ; preds = %0
  %16 = load i32, ptr %1, align 4
  %17 = icmp ne i32 %16, 0
  br i1 %17, label %18, label %19

18:                                               ; preds = %15
  store i32 1, ptr @need_numeric_port_hack_, align 4
  br label %19

19:                                               ; preds = %18, %15, %0
  %20 = load ptr, ptr %4, align 8
  %21 = call ptr @ai_find_protocol(ptr noundef %20)
  %22 = icmp ne ptr %21, null
  br i1 %22, label %23, label %27

23:                                               ; preds = %19
  %24 = load ptr, ptr %5, align 8
  %25 = call ptr @ai_find_protocol(ptr noundef %24)
  %26 = icmp ne ptr %25, null
  br i1 %26, label %28, label %27

27:                                               ; preds = %23, %19
  store i32 1, ptr @need_socktype_protocol_hack_, align 4
  br label %28

28:                                               ; preds = %27, %23
  %29 = load ptr, ptr %3, align 8
  %30 = icmp ne ptr %29, null
  br i1 %30, label %31, label %33

31:                                               ; preds = %28
  %32 = load ptr, ptr %3, align 8
  call void @freeaddrinfo(ptr noundef %32) #11
  br label %33

33:                                               ; preds = %31, %28
  %34 = load ptr, ptr %4, align 8
  %35 = icmp ne ptr %34, null
  br i1 %35, label %36, label %38

36:                                               ; preds = %33
  %37 = load ptr, ptr %4, align 8
  call void @freeaddrinfo(ptr noundef %37) #11
  br label %38

38:                                               ; preds = %36, %33
  %39 = load ptr, ptr %5, align 8
  %40 = icmp ne ptr %39, null
  br i1 %40, label %41, label %43

41:                                               ; preds = %38
  %42 = load ptr, ptr %5, align 8
  call void @freeaddrinfo(ptr noundef %42) #11
  br label %43

43:                                               ; preds = %41, %38
  store i32 1, ptr @tested_for_getaddrinfo_hacks, align 4
  call void @llvm.lifetime.end.p0(i64 48, ptr %6) #11
  call void @llvm.lifetime.end.p0(i64 8, ptr %5) #11
  call void @llvm.lifetime.end.p0(i64 8, ptr %4) #11
  call void @llvm.lifetime.end.p0(i64 8, ptr %3) #11
  call void @llvm.lifetime.end.p0(i64 4, ptr %2) #11
  call void @llvm.lifetime.end.p0(i64 4, ptr %1) #11
  ret void
}