; Function Attrs: nounwind uwtable
define internal fastcc void @test_for_getaddrinfo_hacks() unnamed_addr #0 {
  %1 = alloca ptr, align 8
  %2 = alloca ptr, align 8
  %3 = alloca ptr, align 8
  %4 = alloca %struct.addrinfo, align 8
  call void @llvm.lifetime.start.p0(i64 8, ptr nonnull %1) #30
  store ptr null, ptr %1, align 8
  call void @llvm.lifetime.start.p0(i64 8, ptr nonnull %2) #30
  store ptr null, ptr %2, align 8
  call void @llvm.lifetime.start.p0(i64 8, ptr nonnull %3) #30
  store ptr null, ptr %3, align 8
  call void @llvm.lifetime.start.p0(i64 48, ptr nonnull %4) #30
  call void @llvm.memset.p0.i64(ptr noundef nonnull align 8 dereferenceable(48) %4, i8 0, i64 48, i1 false)
  store i32 1028, ptr %4, align 8
  %5 = call i32 @getaddrinfo(ptr noundef nonnull @.str.35, ptr noundef nonnull @.str.36, ptr noundef nonnull %4, ptr noundef nonnull %1) #30
  %6 = call i32 @getaddrinfo(ptr noundef nonnull @.str.35, ptr noundef null, ptr noundef nonnull %4, ptr noundef nonnull %3) #30
  %7 = getelementptr inbounds nuw i8, ptr %4, i64 8
  store i32 1, ptr %7, align 8
  %8 = call i32 @getaddrinfo(ptr noundef nonnull @.str.35, ptr noundef nonnull @.str.36, ptr noundef nonnull %4, ptr noundef nonnull %2) #30
  %9 = icmp eq i32 %8, 0
  %10 = icmp ne i32 %5, 0
  %or.cond = select i1 %9, i1 %10, i1 false
  br i1 %or.cond, label %11, label %12

11:                                               ; preds = %0
  store i1 true, ptr @need_numeric_port_hack_, align 4
  br label %12

12:                                               ; preds = %11, %0
  %13 = load ptr, ptr %2, align 8
  %.not7.i = icmp eq ptr %13, null
  br i1 %.not7.i, label %ai_find_protocol.exit.thread, label %.lr.ph.i

.lr.ph.i:                                         ; preds = %12, %16
  %.08.i = phi ptr [ %18, %16 ], [ %13, %12 ]
  %14 = getelementptr inbounds nuw i8, ptr %.08.i, i64 12
  %15 = load i32, ptr %14, align 4
  %.not6.i = icmp eq i32 %15, 0
  br i1 %.not6.i, label %16, label %ai_find_protocol.exit

16:                                               ; preds = %.lr.ph.i
  %17 = getelementptr inbounds nuw i8, ptr %.08.i, i64 40
  %18 = load ptr, ptr %17, align 8
  %.not.i = icmp eq ptr %18, null
  br i1 %.not.i, label %ai_find_protocol.exit.thread, label %.lr.ph.i, !llvm.loop !25

ai_find_protocol.exit:                            ; preds = %.lr.ph.i
  %19 = load ptr, ptr %3, align 8
  %.not7.i9 = icmp eq ptr %19, null
  br i1 %.not7.i9, label %ai_find_protocol.exit.thread, label %.lr.ph.i10

.lr.ph.i10:                                       ; preds = %ai_find_protocol.exit, %22
  %.08.i11 = phi ptr [ %24, %22 ], [ %19, %ai_find_protocol.exit ]
  %20 = getelementptr inbounds nuw i8, ptr %.08.i11, i64 12
  %21 = load i32, ptr %20, align 4
  %.not6.i12 = icmp eq i32 %21, 0
  br i1 %.not6.i12, label %22, label %ai_find_protocol.exit15

22:                                               ; preds = %.lr.ph.i10
  %23 = getelementptr inbounds nuw i8, ptr %.08.i11, i64 40
  %24 = load ptr, ptr %23, align 8
  %.not.i14 = icmp eq ptr %24, null
  br i1 %.not.i14, label %ai_find_protocol.exit.thread, label %.lr.ph.i10, !llvm.loop !25

ai_find_protocol.exit.thread:                     ; preds = %16, %22, %ai_find_protocol.exit, %12
  store i1 true, ptr @need_socktype_protocol_hack_, align 4
  br label %ai_find_protocol.exit15

ai_find_protocol.exit15:                          ; preds = %.lr.ph.i10, %ai_find_protocol.exit.thread
  %25 = load ptr, ptr %1, align 8
  %.not6 = icmp eq ptr %25, null
  br i1 %.not6, label %27, label %26

26:                                               ; preds = %ai_find_protocol.exit15
  call void @freeaddrinfo(ptr noundef nonnull %25) #30
  %.pre = load ptr, ptr %2, align 8
  br label %27

27:                                               ; preds = %26, %ai_find_protocol.exit15
  %28 = phi ptr [ %.pre, %26 ], [ %13, %ai_find_protocol.exit15 ]
  %.not7 = icmp eq ptr %28, null
  br i1 %.not7, label %30, label %29

29:                                               ; preds = %27
  call void @freeaddrinfo(ptr noundef nonnull %28) #30
  br label %30

30:                                               ; preds = %29, %27
  %31 = load ptr, ptr %3, align 8
  %.not8 = icmp eq ptr %31, null
  br i1 %.not8, label %33, label %32

32:                                               ; preds = %30
  call void @freeaddrinfo(ptr noundef nonnull %31) #30
  br label %33

33:                                               ; preds = %32, %30
  store i1 true, ptr @tested_for_getaddrinfo_hacks, align 4
  call void @llvm.lifetime.end.p0(i64 48, ptr nonnull %4) #30
  call void @llvm.lifetime.end.p0(i64 8, ptr nonnull %3) #30
  call void @llvm.lifetime.end.p0(i64 8, ptr nonnull %2) #30
  call void @llvm.lifetime.end.p0(i64 8, ptr nonnull %1) #30
  ret void
}